Certificate:
    Data:
        Version: 3 (0x2)
        Serial Number: 2 (0x2)
        Signature Algorithm: sha256WithRSAEncryption
        Issuer: C=DK, ST=Copenhagen, L=Lyngby, O=VPN, OU=DTU, CN=VPN CA/name=server/emailAddress=class=hljs-string
        Validity
            Not Before: Mar 12 10:44:40 2020 GMT
            Not After : Mar 10 10:44:40 2030 GMT
        Subject: C=DK, ST=Copenhagen, L=Lyngby, O=VPN, OU=DTU, CN=client/name=server/emailAddress=class=hljs-string
        Subject Public Key Info:
            Public Key Algorithm: rsaEncryption
                RSA Public-Key: (2048 bit)
                Modulus:
                    00:db:a4:ed:ca:44:c1:8d:74:9e:58:a5:0f:37:25:
                    0f:85:0b:e0:bd:7e:19:f6:23:13:ca:04:11:83:c6:
                    15:79:41:7c:ac:bc:28:4a:2e:23:76:57:0f:67:f7:
                    36:d6:e0:90:a5:37:8f:50:af:b1:41:9b:bc:cf:69:
                    8d:f6:93:f5:c6:a9:d3:4a:a8:51:18:49:21:5a:04:
                    33:1c:26:65:9a:ee:65:83:dc:e3:ab:2f:67:04:eb:
                    34:00:65:24:27:7f:22:a8:d5:d7:cb:87:9b:4e:f0:
                    3a:fd:45:30:ad:ff:d0:bc:c0:ec:38:a3:e6:0c:84:
                    d9:1e:96:06:e7:57:fa:b9:d3:c4:ce:53:21:81:ea:
                    35:cd:d7:58:1d:14:84:de:fb:38:da:92:c0:fa:02:
                    2c:67:6e:a5:4b:c4:19:92:97:24:4c:c0:77:8c:f0:
                    3c:e4:c1:14:65:2c:20:b2:b3:26:81:09:0f:05:a1:
                    19:63:97:40:6c:e7:af:36:ee:ed:f5:e6:94:c0:26:
                    34:8c:e5:62:4d:7b:37:68:7a:f5:cb:cb:ef:39:70:
                    4e:b8:ee:9d:82:6c:60:5e:91:bd:31:e4:27:f7:ec:
                    bf:5c:48:b8:95:e4:7e:f0:9a:63:e5:c2:23:c9:c3:
                    f1:69:b5:0a:e7:db:96:a0:f5:6b:0b:86:4f:d8:4e:
                    e1:23
                Exponent: 65537 (0x10001)
        X509v3 extensions:
            X509v3 Basic Constraints: 
                CA:FALSE
            Netscape Comment: 
                Easy-RSA Generated Certificate
            X509v3 Subject Key Identifier: 
                9E:10:16:D5:C9:1D:7A:58:FE:E5:11:88:11:59:A6:4F:C0:DB:DB:D9
            X509v3 Authority Key Identifier: 
                keyid:C3:DA:70:58:D7:55:62:78:5E:01:FC:A2:8F:96:86:48:90:D8:55:DC
                DirName:/C=DK/ST=Copenhagen/L=Lyngby/O=VPN/OU=DTU/CN=VPN CA/name=server/emailAddress=class=hljs-string
                serial:08:17:34:F0:D5:5F:22:C4:7B:0B:08:DA:A0:ED:26:18:10:1F:4C:B7

            X509v3 Extended Key Usage: 
                TLS Web Client Authentication
            X509v3 Key Usage: 
                Digital Signature
            X509v3 Subject Alternative Name: 
                DNS:client
    Signature Algorithm: sha256WithRSAEncryption
         34:de:b5:64:ea:d3:45:40:b0:19:69:e3:58:bd:b2:35:5e:4a:
         16:cc:35:d8:4a:49:38:a4:e3:f5:8d:2f:6e:9d:22:e0:6a:47:
         76:e5:be:bd:90:39:b0:eb:8f:3a:aa:4f:23:d7:f9:b9:32:5c:
         bd:9f:49:06:79:47:6d:a2:cc:63:fc:e9:30:d9:11:37:b5:1c:
         dc:ac:67:05:f5:78:2a:e2:97:4f:45:3c:ee:58:76:c8:61:c4:
         cf:bc:9e:d2:6b:99:d1:df:f7:0a:ae:8d:60:9f:ca:41:d2:7c:
         40:de:67:37:47:da:7e:a8:00:11:53:cd:e4:1a:c4:69:62:fb:
         68:69:f4:cc:24:d1:1c:05:6a:f9:d3:dc:96:c1:7a:5e:5d:dc:
         95:5c:d4:b1:80:33:6f:b3:d5:c0:25:9f:ba:3e:6a:d3:48:c0:
         a1:f0:b3:5b:37:8e:01:93:39:29:bd:ff:fc:b1:4c:26:4b:9d:
         8f:3a:1d:3e:a4:29:f0:0f:9f:42:41:81:dc:2c:76:75:27:ee:
         99:d8:c9:e6:9b:49:05:8b:e0:95:9c:f6:40:12:91:26:09:e9:
         d4:47:77:d3:59:bf:97:77:e3:d0:8a:d3:af:15:bd:4d:00:09:
         06:fe:f9:90:df:40:9a:08:83:08:6e:ec:db:55:cd:28:29:e6:
         7a:1c:de:49
-----BEGIN CERTIFICATE-----
MIIFDTCCA/WgAwIBAgIBAjANBgkqhkiG9w0BAQsFADCBkzELMAkGA1UEBhMCREsx
EzARBgNVBAgTCkNvcGVuaGFnZW4xDzANBgNVBAcTBkx5bmdieTEMMAoGA1UEChMD
VlBOMQwwCgYDVQQLEwNEVFUxDzANBgNVBAMTBlZQTiBDQTEPMA0GA1UEKRMGc2Vy
dmVyMSAwHgYJKoZIhvcNAQkBFhFjbGFzcz1obGpzLXN0cmluZzAeFw0yMDAzMTIx
MDQ0NDBaFw0zMDAzMTAxMDQ0NDBaMIGTMQswCQYDVQQGEwJESzETMBEGA1UECBMK
Q29wZW5oYWdlbjEPMA0GA1UEBxMGTHluZ2J5MQwwCgYDVQQKEwNWUE4xDDAKBgNV
BAsTA0RUVTEPMA0GA1UEAxMGY2xpZW50MQ8wDQYDVQQpEwZzZXJ2ZXIxIDAeBgkq
hkiG9w0BCQEWEWNsYXNzPWhsanMtc3RyaW5nMIIBIjANBgkqhkiG9w0BAQEFAAOC
AQ8AMIIBCgKCAQEA26TtykTBjXSeWKUPNyUPhQvgvX4Z9iMTygQRg8YVeUF8rLwo
Si4jdlcPZ/c21uCQpTePUK+xQZu8z2mN9pP1xqnTSqhRGEkhWgQzHCZlmu5lg9zj
qy9nBOs0AGUkJ38iqNXXy4ebTvA6/UUwrf/QvMDsOKPmDITZHpYG51f6udPEzlMh
geo1zddYHRSE3vs42pLA+gIsZ26lS8QZkpckTMB3jPA85MEUZSwgsrMmgQkPBaEZ
Y5dAbOevNu7t9eaUwCY0jOViTXs3aHr1y8vvOXBOuO6dgmxgXpG9MeQn9+y/XEi4
leR+8Jpj5cIjycPxabUK59uWoPVrC4ZP2E7hIwIDAQABo4IBaDCCAWQwCQYDVR0T
BAIwADAtBglghkgBhvhCAQ0EIBYeRWFzeS1SU0EgR2VuZXJhdGVkIENlcnRpZmlj
YXRlMB0GA1UdDgQWBBSeEBbVyR16WP7lEYgRWaZPwNvb2TCB0wYDVR0jBIHLMIHI
gBTD2nBY11VieF4B/KKPloZIkNhV3KGBmaSBljCBkzELMAkGA1UEBhMCREsxEzAR
BgNVBAgTCkNvcGVuaGFnZW4xDzANBgNVBAcTBkx5bmdieTEMMAoGA1UEChMDVlBO
MQwwCgYDVQQLEwNEVFUxDzANBgNVBAMTBlZQTiBDQTEPMA0GA1UEKRMGc2VydmVy
MSAwHgYJKoZIhvcNAQkBFhFjbGFzcz1obGpzLXN0cmluZ4IUCBc08NVfIsR7Cwja
oO0mGBAfTLcwEwYDVR0lBAwwCgYIKwYBBQUHAwIwCwYDVR0PBAQDAgeAMBEGA1Ud
EQQKMAiCBmNsaWVudDANBgkqhkiG9w0BAQsFAAOCAQEANN61ZOrTRUCwGWnjWL2y
NV5KFsw12EpJOKTj9Y0vbp0i4GpHduW+vZA5sOuPOqpPI9f5uTJcvZ9JBnlHbaLM
Y/zpMNkRN7Uc3KxnBfV4KuKXT0U87lh2yGHEz7ye0muZ0d/3Cq6NYJ/KQdJ8QN5n
N0fafqgAEVPN5BrEaWL7aGn0zCTRHAVq+dPclsF6Xl3clVzUsYAzb7PVwCWfuj5q
00jAofCzWzeOAZM5Kb3//LFMJkudjzodPqQp8A+fQkGB3Cx2dSfumdjJ5ptJBYvg
lZz2QBKRJgnp1Ed301m/l3fj0IrTrxW9TQAJBv75kN9AmgiDCG7s21XNKCnmehze
SQ==
-----END CERTIFICATE-----
