Certificate:
    Data:
        Version: 3 (0x2)
        Serial Number: 2 (0x2)
        Signature Algorithm: sha256WithRSAEncryption
        Issuer: C=DK, ST=Copenhagen, L=Lyngby, O=VPN, OU=DTU, CN=VPN CA/name=server/emailAddress=s144122@student.dtu.dk
        Validity
            Not Before: Mar 21 12:09:53 2020 GMT
            Not After : Mar 19 12:09:53 2030 GMT
        Subject: C=DK, ST=Copenhagen, L=Lyngby, O=VPN, OU=DTU, CN=client/name=server/emailAddress=s144122@student.dtu.dk
        Subject Public Key Info:
            Public Key Algorithm: rsaEncryption
                RSA Public-Key: (2048 bit)
                Modulus:
                    00:e7:59:c5:70:b8:be:25:17:32:da:6c:45:31:e2:
                    88:29:20:45:79:63:19:ca:c3:43:42:da:38:20:c9:
                    2a:f6:ed:83:4b:8b:23:6f:53:b9:59:6a:dc:7a:ab:
                    15:1a:2d:bf:f8:04:40:2f:d7:48:d5:cd:95:67:7d:
                    8e:1b:d1:f6:d5:e7:0b:50:88:ac:a1:8f:1a:b1:cc:
                    97:fe:4a:29:84:d6:10:b2:00:40:b4:e9:f0:eb:2d:
                    12:44:04:e8:7e:4e:d3:41:da:6c:f8:60:21:d7:56:
                    50:89:d6:76:77:e7:19:76:07:55:15:d7:c3:61:58:
                    c7:c0:b0:e7:a5:c9:76:ef:a8:a0:8a:98:fa:60:72:
                    d5:0e:d7:05:78:0f:a3:66:f9:6b:a0:5c:81:85:59:
                    c9:0d:3d:6f:42:d7:38:d8:65:de:4d:fb:cc:f8:57:
                    01:6d:46:15:b0:5b:d6:e9:1e:8a:d3:95:69:72:9a:
                    55:3f:d2:62:b0:b5:93:85:7d:f2:b5:0e:4f:80:fb:
                    c9:3c:6f:2a:88:e5:cb:3c:7c:a4:a0:70:7b:a9:a0:
                    21:f9:51:73:0d:88:05:be:17:7f:c3:9e:94:20:fa:
                    4d:c2:19:60:3f:d8:41:51:ab:fd:07:aa:c0:01:90:
                    42:ba:aa:e4:db:85:dc:e8:9e:05:1c:a4:d0:d5:2f:
                    a9:8b
                Exponent: 65537 (0x10001)
        X509v3 extensions:
            X509v3 Basic Constraints: 
                CA:FALSE
            Netscape Comment: 
                Easy-RSA Generated Certificate
            X509v3 Subject Key Identifier: 
                0F:67:11:A6:A1:F7:1C:BF:9A:04:44:04:CD:93:9C:25:1C:20:9C:AC
            X509v3 Authority Key Identifier: 
                keyid:D5:7F:D9:AD:77:25:BF:13:64:05:F5:A3:8C:4A:CB:16:33:AB:B6:D5
                DirName:/C=DK/ST=Copenhagen/L=Lyngby/O=VPN/OU=DTU/CN=VPN CA/name=server/emailAddress=s144122@student.dtu.dk
                serial:73:77:93:00:43:D2:F2:1E:F6:E5:DE:3A:D7:01:6F:0F:46:00:00:A8

            X509v3 Extended Key Usage: 
                TLS Web Client Authentication
            X509v3 Key Usage: 
                Digital Signature
            X509v3 Subject Alternative Name: 
                DNS:client
    Signature Algorithm: sha256WithRSAEncryption
         e3:36:55:7d:64:02:dc:47:90:b4:8e:07:32:7c:a4:fc:ac:80:
         95:79:38:8c:e2:cf:53:c4:24:71:c6:df:79:b8:e0:a7:2e:c1:
         87:95:04:13:41:92:f7:84:a7:40:02:ad:16:a1:ac:bd:5d:70:
         23:7b:43:c0:f5:ca:78:97:9f:56:4f:dc:11:cd:5c:34:8d:8a:
         4b:b9:c2:52:95:00:f3:5b:bd:41:03:cd:00:f9:bc:ca:82:1a:
         8e:4c:02:18:e8:fd:e9:2f:20:70:76:a7:04:63:ea:a2:64:77:
         ba:f8:76:23:9c:f5:95:5d:04:d3:18:31:b4:0b:7e:c5:52:ac:
         81:32:7e:6f:cd:a8:0a:03:e0:f4:b9:6b:09:cb:95:2b:70:88:
         49:01:11:a4:aa:08:90:d3:c9:33:a8:4c:7b:0c:df:41:1c:65:
         4e:4e:41:bc:7f:b9:15:d8:18:74:3f:1e:60:e4:35:ce:ab:9f:
         ab:c2:12:20:29:a6:e0:b1:4a:83:12:1b:1d:38:2b:f8:2a:83:
         c6:17:2f:80:d4:fb:19:5a:67:75:01:fc:12:d9:32:42:08:c3:
         5d:2a:3d:cc:6d:df:22:52:89:8c:fc:34:05:27:79:b9:c3:48:
         50:ed:64:64:0d:dc:c0:38:88:54:22:53:9e:d5:c6:2d:b4:2c:
         b1:dc:00:07
-----BEGIN CERTIFICATE-----
MIIFHDCCBASgAwIBAgIBAjANBgkqhkiG9w0BAQsFADCBmDELMAkGA1UEBhMCREsx
EzARBgNVBAgTCkNvcGVuaGFnZW4xDzANBgNVBAcTBkx5bmdieTEMMAoGA1UEChMD
VlBOMQwwCgYDVQQLEwNEVFUxDzANBgNVBAMTBlZQTiBDQTEPMA0GA1UEKRMGc2Vy
dmVyMSUwIwYJKoZIhvcNAQkBFhZzMTQ0MTIyQHN0dWRlbnQuZHR1LmRrMB4XDTIw
MDMyMTEyMDk1M1oXDTMwMDMxOTEyMDk1M1owgZgxCzAJBgNVBAYTAkRLMRMwEQYD
VQQIEwpDb3BlbmhhZ2VuMQ8wDQYDVQQHEwZMeW5nYnkxDDAKBgNVBAoTA1ZQTjEM
MAoGA1UECxMDRFRVMQ8wDQYDVQQDEwZjbGllbnQxDzANBgNVBCkTBnNlcnZlcjEl
MCMGCSqGSIb3DQEJARYWczE0NDEyMkBzdHVkZW50LmR0dS5kazCCASIwDQYJKoZI
hvcNAQEBBQADggEPADCCAQoCggEBAOdZxXC4viUXMtpsRTHiiCkgRXljGcrDQ0La
OCDJKvbtg0uLI29TuVlq3HqrFRotv/gEQC/XSNXNlWd9jhvR9tXnC1CIrKGPGrHM
l/5KKYTWELIAQLTp8OstEkQE6H5O00HabPhgIddWUInWdnfnGXYHVRXXw2FYx8Cw
56XJdu+ooIqY+mBy1Q7XBXgPo2b5a6BcgYVZyQ09b0LXONhl3k37zPhXAW1GFbBb
1ukeitOVaXKaVT/SYrC1k4V98rUOT4D7yTxvKojlyzx8pKBwe6mgIflRcw2IBb4X
f8OelCD6TcIZYD/YQVGr/QeqwAGQQrqq5NuF3OieBRyk0NUvqYsCAwEAAaOCAW0w
ggFpMAkGA1UdEwQCMAAwLQYJYIZIAYb4QgENBCAWHkVhc3ktUlNBIEdlbmVyYXRl
ZCBDZXJ0aWZpY2F0ZTAdBgNVHQ4EFgQUD2cRpqH3HL+aBEQEzZOcJRwgnKwwgdgG
A1UdIwSB0DCBzYAU1X/ZrXclvxNkBfWjjErLFjOrttWhgZ6kgZswgZgxCzAJBgNV
BAYTAkRLMRMwEQYDVQQIEwpDb3BlbmhhZ2VuMQ8wDQYDVQQHEwZMeW5nYnkxDDAK
BgNVBAoTA1ZQTjEMMAoGA1UECxMDRFRVMQ8wDQYDVQQDEwZWUE4gQ0ExDzANBgNV
BCkTBnNlcnZlcjElMCMGCSqGSIb3DQEJARYWczE0NDEyMkBzdHVkZW50LmR0dS5k
a4IUc3eTAEPS8h725d461wFvD0YAAKgwEwYDVR0lBAwwCgYIKwYBBQUHAwIwCwYD
VR0PBAQDAgeAMBEGA1UdEQQKMAiCBmNsaWVudDANBgkqhkiG9w0BAQsFAAOCAQEA
4zZVfWQC3EeQtI4HMnyk/KyAlXk4jOLPU8Qkccbfebjgpy7Bh5UEE0GS94SnQAKt
FqGsvV1wI3tDwPXKeJefVk/cEc1cNI2KS7nCUpUA81u9QQPNAPm8yoIajkwCGOj9
6S8gcHanBGPqomR3uvh2I5z1lV0E0xgxtAt+xVKsgTJ+b82oCgPg9LlrCcuVK3CI
SQERpKoIkNPJM6hMewzfQRxlTk5BvH+5FdgYdD8eYOQ1zqufq8ISICmm4LFKgxIb
HTgr+CqDxhcvgNT7GVpndQH8EtkyQgjDXSo9zG3fIlKJjPw0BSd5ucNIUO1kZA3c
wDiIVCJTntXGLbQssdwABw==
-----END CERTIFICATE-----
